target datalayout = "e-m:e-p270:32:32-p271:32:32-p272:64:64-i64:64-i128:128-f80:128-n8:16:32:64-S128"
target triple = "x86_64-pc-linux-gnu"

%struct.ma_device_descriptor = type { ptr, i32, i32, i32, i32, [254 x i8], i32, i32, i32 }

; Function Attrs: nounwind uwtable
define hidden i32 @ma_calculate_buffer_size_in_frames_from_milliseconds(i32 noundef %0, i32 noundef %1) #0 {
  %3 = alloca i32, align 4
  %4 = alloca i32, align 4
  %5 = alloca i32, align 4
  store i32 %0, ptr %4, align 4
  store i32 %1, ptr %5, align 4
  %6 = load i32, ptr %5, align 4
  %7 = icmp eq i32 %6, 0
  br i1 %7, label %8, label %9

8:                                                ; preds = %2
  store i32 0, ptr %3, align 4
  br label %14

9:                                                ; preds = %2
  %10 = load i32, ptr %4, align 4
  %11 = load i32, ptr %5, align 4
  %12 = mul i32 %10, %11
  %13 = udiv i32 %12, 1000
  store i32 %13, ptr %3, align 4
  br label %14

14:                                               ; preds = %9, %8
  %15 = load i32, ptr %3, align 4
  ret i32 %15
}

; Function Attrs: nounwind uwtable
define hidden i32 @ma_calculate_buffer_size_in_frames_from_descriptor(ptr noundef %0, i32 noundef %1, i32 noundef %2) #0 {
  %4 = alloca i32, align 4
  %5 = alloca ptr, align 8
  %6 = alloca i32, align 4
  %7 = alloca i32, align 4
  store ptr %0, ptr %5, align 8
  store i32 %1, ptr %6, align 4
  store i32 %2, ptr %7, align 4
  %8 = load ptr, ptr %5, align 8
  %9 = icmp eq ptr %8, null
  br i1 %9, label %10, label %11

10:                                               ; preds = %3
  store i32 0, ptr %4, align 4
  br label %51

11:                                               ; preds = %3
  %12 = load i32, ptr %6, align 4
  %13 = icmp eq i32 %12, 0
  br i1 %13, label %14, label %18

14:                                               ; preds = %11
  %15 = load ptr, ptr %5, align 8
  %16 = getelementptr inbounds nuw %struct.ma_device_descriptor, ptr %15, i32 0, i32 4
  %17 = load i32, ptr %16, align 4
  store i32 %17, ptr %6, align 4
  br label %18

18:                                               ; preds = %14, %11
  %19 = load i32, ptr %6, align 4
  %20 = icmp eq i32 %19, 0
  br i1 %20, label %21, label %22

21:                                               ; preds = %18
  store i32 48000, ptr %6, align 4
  br label %22

22:                                               ; preds = %21, %18
  %23 = load ptr, ptr %5, align 8
  %24 = getelementptr inbounds nuw %struct.ma_device_descriptor, ptr %23, i32 0, i32 6
  %25 = load i32, ptr %24, align 8
  %26 = icmp eq i32 %25, 0
  br i1 %26, label %27, label %47

27:                                               ; preds = %22
  %28 = load ptr, ptr %5, align 8
  %29 = getelementptr inbounds nuw %struct.ma_device_descriptor, ptr %28, i32 0, i32 7
  %30 = load i32, ptr %29, align 4
  %31 = icmp eq i32 %30, 0
  br i1 %31, label %32, label %41

32:                                               ; preds = %27
  %33 = load i32, ptr %7, align 4
  %34 = icmp eq i32 %33, 0
  br i1 %34, label %35, label %38

35:                                               ; preds = %32
  %36 = load i32, ptr %6, align 4
  %37 = call i32 @ma_calculate_buffer_size_in_frames_from_milliseconds(i32 noundef 10, i32 noundef %36)
  store i32 %37, ptr %4, align 4
  br label %51

38:                                               ; preds = %32
  %39 = load i32, ptr %6, align 4
  %40 = call i32 @ma_calculate_buffer_size_in_frames_from_milliseconds(i32 noundef 100, i32 noundef %39)
  store i32 %40, ptr %4, align 4
  br label %51

41:                                               ; preds = %27
  %42 = load ptr, ptr %5, align 8
  %43 = getelementptr inbounds nuw %struct.ma_device_descriptor, ptr %42, i32 0, i32 7
  %44 = load i32, ptr %43, align 4
  %45 = load i32, ptr %6, align 4
  %46 = call i32 @ma_calculate_buffer_size_in_frames_from_milliseconds(i32 noundef %44, i32 noundef %45)
  store i32 %46, ptr %4, align 4
  br label %51

47:                                               ; preds = %22
  %48 = load ptr, ptr %5, align 8
  %49 = getelementptr inbounds nuw %struct.ma_device_descriptor, ptr %48, i32 0, i32 6
  %50 = load i32, ptr %49, align 8
  store i32 %50, ptr %4, align 4
  br label %51

51:                                               ; preds = %47, %41, %38, %35, %10
  %52 = load i32, ptr %4, align 4
  ret i32 %52
}