; Function Attrs: mustprogress nofree norecurse nosync nounwind willreturn memory(argmem: read) uwtable
define hidden i32 @ma_calculate_buffer_size_in_frames_from_descriptor(ptr noundef readonly captures(address_is_null) %0, i32 noundef %1, i32 noundef %2) local_unnamed_addr #17 {
  %4 = icmp eq ptr %0, null
  br i1 %4, label %30, label %5

5:                                                ; preds = %3
  %6 = icmp eq i32 %1, 0
  br i1 %6, label %7, label %10

7:                                                ; preds = %5
  %8 = getelementptr inbounds nuw i8, ptr %0, i64 20
  %9 = load i32, ptr %8, align 4
  br label %10

10:                                               ; preds = %7, %5
  %.012 = phi i32 [ %9, %7 ], [ %1, %5 ]
  %11 = icmp eq i32 %.012, 0
  %spec.store.select = select i1 %11, i32 48000, i32 %.012
  %12 = getelementptr inbounds nuw i8, ptr %0, i64 280
  %13 = load i32, ptr %12, align 8
  %14 = icmp eq i32 %13, 0
  br i1 %14, label %15, label %30

15:                                               ; preds = %10
  %16 = getelementptr inbounds nuw i8, ptr %0, i64 284
  %17 = load i32, ptr %16, align 4
  %18 = icmp eq i32 %17, 0
  br i1 %18, label %19, label %27

19:                                               ; preds = %15
  %20 = icmp eq i32 %2, 0
  br i1 %20, label %21, label %24

21:                                               ; preds = %19
  %22 = mul i32 %spec.store.select, 10
  %23 = udiv i32 %22, 1000
  br label %30

24:                                               ; preds = %19
  %25 = mul i32 %spec.store.select, 100
  %26 = udiv i32 %25, 1000
  br label %30

27:                                               ; preds = %15
  %28 = mul i32 %17, %spec.store.select
  %29 = udiv i32 %28, 1000
  br label %30

30:                                               ; preds = %10, %3, %27, %24, %21
  %.0 = phi i32 [ %23, %21 ], [ %26, %24 ], [ %29, %27 ], [ 0, %3 ], [ %13, %10 ]
  ret i32 %.0
}